target datalayout = "e-m:e-p270:32:32-p271:32:32-p272:64:64-i64:64-i128:128-f80:128-n8:16:32:64-S128"
target triple = "x86_64-pc-linux-gnu"

%struct.OSQPCscMatrix = type { i64, i64, ptr, ptr, ptr, i64, i64 }

; Function Attrs: nounwind uwtable
define void @csc_update_values(ptr noundef %0, ptr noundef %1, ptr noundef %2, i64 noundef %3) #0 {
  %5 = alloca ptr, align 8
  %6 = alloca ptr, align 8
  %7 = alloca ptr, align 8
  %8 = alloca i64, align 8
  %9 = alloca i64, align 8
  store ptr %0, ptr %5, align 8, !tbaa !16
  store ptr %1, ptr %6, align 8, !tbaa !3
  store ptr %2, ptr %7, align 8, !tbaa !17
  store i64 %3, ptr %8, align 8, !tbaa !10
  call void @llvm.lifetime.start.p0(i64 8, ptr %9) #3
  %10 = load ptr, ptr %7, align 8, !tbaa !17
  %11 = icmp ne ptr %10, null
  br i1 %11, label %12, label %34

12:                                               ; preds = %4
  store i64 0, ptr %9, align 8, !tbaa !10
  br label %13

13:                                               ; preds = %30, %12
  %14 = load i64, ptr %9, align 8, !tbaa !10
  %15 = load i64, ptr %8, align 8, !tbaa !10
  %16 = icmp slt i64 %14, %15
  br i1 %16, label %17, label %33

17:                                               ; preds = %13
  %18 = load ptr, ptr %6, align 8, !tbaa !3
  %19 = load i64, ptr %9, align 8, !tbaa !10
  %20 = getelementptr inbounds double, ptr %18, i64 %19
  %21 = load double, ptr %20, align 8, !tbaa !8
  %22 = load ptr, ptr %5, align 8, !tbaa !16
  %23 = getelementptr inbounds nuw %struct.OSQPCscMatrix, ptr %22, i32 0, i32 4
  %24 = load ptr, ptr %23, align 8, !tbaa !19
  %25 = load ptr, ptr %7, align 8, !tbaa !17
  %26 = load i64, ptr %9, align 8, !tbaa !10
  %27 = getelementptr inbounds i64, ptr %25, i64 %26
  %28 = load i64, ptr %27, align 8, !tbaa !10
  %29 = getelementptr inbounds double, ptr %24, i64 %28
  store double %21, ptr %29, align 8, !tbaa !8
  br label %30

30:                                               ; preds = %17
  %31 = load i64, ptr %9, align 8, !tbaa !10
  %32 = add nsw i64 %31, 1
  store i64 %32, ptr %9, align 8, !tbaa !10
  br label %13, !llvm.loop !21

33:                                               ; preds = %13
  br label %53

34:                                               ; preds = %4
  store i64 0, ptr %9, align 8, !tbaa !10
  br label %35

35:                                               ; preds = %49, %34
  %36 = load i64, ptr %9, align 8, !tbaa !10
  %37 = load i64, ptr %8, align 8, !tbaa !10
  %38 = icmp slt i64 %36, %37
  br i1 %38, label %39, label %52

39:                                               ; preds = %35
  %40 = load ptr, ptr %6, align 8, !tbaa !3
  %41 = load i64, ptr %9, align 8, !tbaa !10
  %42 = getelementptr inbounds double, ptr %40, i64 %41
  %43 = load double, ptr %42, align 8, !tbaa !8
  %44 = load ptr, ptr %5, align 8, !tbaa !16
  %45 = getelementptr inbounds nuw %struct.OSQPCscMatrix, ptr %44, i32 0, i32 4
  %46 = load ptr, ptr %45, align 8, !tbaa !19
  %47 = load i64, ptr %9, align 8, !tbaa !10
  %48 = getelementptr inbounds double, ptr %46, i64 %47
  store double %43, ptr %48, align 8, !tbaa !8
  br label %49

49:                                               ; preds = %39
  %50 = load i64, ptr %9, align 8, !tbaa !10
  %51 = add nsw i64 %50, 1
  store i64 %51, ptr %9, align 8, !tbaa !10
  br label %35, !llvm.loop !22

52:                                               ; preds = %35
  br label %53

53:                                               ; preds = %52, %33
  call void @llvm.lifetime.end.p0(i64 8, ptr %9) #3
  ret void
}