; Function Attrs: nofree norecurse nosync nounwind memory(write, argmem: readwrite, inaccessiblemem: none) uwtable
define void @csc_update_values(ptr noundef readonly captures(none) %0, ptr noundef readonly captures(none) %1, ptr noundef readonly captures(address_is_null) %2, i64 noundef %3) local_unnamed_addr #2 {
  %.not = icmp eq ptr %2, null
  %5 = icmp sgt i64 %3, 0
  br i1 %.not, label %.preheader, label %.preheader16

.preheader16:                                     ; preds = %4
  br i1 %5, label %.lr.ph, label %.loopexit

.lr.ph:                                           ; preds = %.preheader16
  %6 = getelementptr inbounds nuw i8, ptr %0, i64 32
  %7 = load ptr, ptr %6, align 8, !tbaa !11
  br label %10

.preheader:                                       ; preds = %4
  br i1 %5, label %.lr.ph20, label %.loopexit

.lr.ph20:                                         ; preds = %.preheader
  %8 = getelementptr inbounds nuw i8, ptr %0, i64 32
  %9 = load ptr, ptr %8, align 8, !tbaa !11
  br label %17

10:                                               ; preds = %.lr.ph, %10
  %.018 = phi i64 [ 0, %.lr.ph ], [ %16, %10 ]
  %11 = getelementptr inbounds nuw double, ptr %1, i64 %.018
  %12 = load double, ptr %11, align 8, !tbaa !3
  %13 = getelementptr inbounds nuw i64, ptr %2, i64 %.018
  %14 = load i64, ptr %13, align 8, !tbaa !17
  %15 = getelementptr inbounds double, ptr %7, i64 %14
  store double %12, ptr %15, align 8, !tbaa !3
  %16 = add nuw nsw i64 %.018, 1
  %exitcond.not = icmp eq i64 %16, %3
  br i1 %exitcond.not, label %.loopexit, label %10, !llvm.loop !18

17:                                               ; preds = %.lr.ph20, %17
  %.119 = phi i64 [ 0, %.lr.ph20 ], [ %21, %17 ]
  %18 = getelementptr inbounds nuw double, ptr %1, i64 %.119
  %19 = load double, ptr %18, align 8, !tbaa !3
  %20 = getelementptr inbounds nuw double, ptr %9, i64 %.119
  store double %19, ptr %20, align 8, !tbaa !3
  %21 = add nuw nsw i64 %.119, 1
  %exitcond22.not = icmp eq i64 %21, %3
  br i1 %exitcond22.not, label %.loopexit, label %17, !llvm.loop !19

.loopexit:                                        ; preds = %10, %17, %.preheader16, %.preheader
  ret void
}